; Function Attrs: nounwind uwtable
define ptr @l_Lean_Core_withIncRecDepth___rarg(ptr noundef %0, ptr noundef %1, ptr noundef %2) #1 {
  %4 = getelementptr inbounds nuw i8, ptr %0, i64 16
  %5 = load ptr, ptr %4, align 8, !tbaa !9
  %6 = ptrtoint ptr %5 to i64
  %7 = and i64 %6, 1
  %.not = icmp eq i64 %7, 0
  br i1 %.not, label %8, label %lean_inc.exit23

8:                                                ; preds = %3
  %.val.i = load i32, ptr %5, align 4, !tbaa !4
  %9 = icmp sgt i32 %.val.i, 0
  br i1 %9, label %10, label %12, !prof !11

10:                                               ; preds = %8
  %11 = add nuw i32 %.val.i, 1
  store i32 %11, ptr %5, align 4, !tbaa !4
  br label %lean_inc.exit23

12:                                               ; preds = %8
  %.not.i26 = icmp eq i32 %.val.i, 0
  br i1 %.not.i26, label %lean_inc.exit23, label %13

13:                                               ; preds = %12
  tail call void @lean_inc_ref_cold(ptr noundef nonnull %5) #7
  br label %lean_inc.exit23

lean_inc.exit23:                                  ; preds = %13, %12, %10, %3
  %14 = ptrtoint ptr %0 to i64
  %15 = and i64 %14, 1
  %.not36 = icmp eq i64 %15, 0
  br i1 %.not36, label %16, label %lean_dec.exit20

16:                                               ; preds = %lean_inc.exit23
  %17 = load i32, ptr %0, align 4, !tbaa !4
  %18 = icmp sgt i32 %17, 1
  br i1 %18, label %19, label %21, !prof !11

19:                                               ; preds = %16
  %20 = add nsw i32 %17, -1
  store i32 %20, ptr %0, align 4, !tbaa !4
  br label %lean_dec.exit20

21:                                               ; preds = %16
  %.not.i = icmp eq i32 %17, 0
  br i1 %.not.i, label %lean_dec.exit20, label %22

22:                                               ; preds = %21
  tail call void @lean_dec_ref_cold(ptr noundef nonnull %0) #7
  br label %lean_dec.exit20

lean_dec.exit20:                                  ; preds = %22, %21, %19, %lean_inc.exit23
  %23 = ptrtoint ptr %1 to i64
  %24 = and i64 %23, 1
  %.not37 = icmp eq i64 %24, 0
  br i1 %.not37, label %25, label %lean_inc.exit22

25:                                               ; preds = %lean_dec.exit20
  %.val.i27 = load i32, ptr %1, align 4, !tbaa !4
  %26 = icmp sgt i32 %.val.i27, 0
  br i1 %26, label %27, label %29, !prof !11

27:                                               ; preds = %25
  %28 = add nuw i32 %.val.i27, 1
  store i32 %28, ptr %1, align 4, !tbaa !4
  br label %lean_inc.exit22

29:                                               ; preds = %25
  %.not.i28 = icmp eq i32 %.val.i27, 0
  br i1 %.not.i28, label %lean_inc.exit22, label %30

30:                                               ; preds = %29
  tail call void @lean_inc_ref_cold(ptr noundef nonnull %1) #7
  br label %lean_inc.exit22

lean_inc.exit22:                                  ; preds = %30, %29, %27, %lean_dec.exit20
  tail call void @lean_inc_heartbeat() #7
  %31 = tail call noalias ptr @mi_malloc_small(i64 noundef 40) #7
  %32 = icmp eq ptr %31, null
  br i1 %32, label %33, label %lean_alloc_closure.exit

33:                                               ; preds = %lean_inc.exit22
  tail call void @lean_internal_panic_out_of_memory() #8
  unreachable

lean_alloc_closure.exit:                          ; preds = %lean_inc.exit22
  %34 = getelementptr inbounds nuw i8, ptr %31, i64 4
  store i32 1, ptr %31, align 4, !tbaa !4
  store i32 -184549336, ptr %34, align 4
  %35 = getelementptr inbounds nuw i8, ptr %31, i64 8
  store ptr @l_Lean_Core_withIncRecDepth___rarg___lambda__1___boxed, ptr %35, align 8, !tbaa !9
  %36 = getelementptr inbounds nuw i8, ptr %31, i64 16
  store i16 6, ptr %36, align 8, !tbaa !15
  %37 = getelementptr inbounds nuw i8, ptr %31, i64 18
  store i16 2, ptr %37, align 2, !tbaa !15
  %38 = getelementptr inbounds nuw i8, ptr %31, i64 24
  store ptr %2, ptr %38, align 8, !tbaa !9
  %39 = getelementptr inbounds nuw i8, ptr %31, i64 32
  store ptr %1, ptr %39, align 8, !tbaa !9
  %40 = getelementptr inbounds nuw i8, ptr %1, i64 8
  %41 = load ptr, ptr %40, align 8, !tbaa !9
  %42 = ptrtoint ptr %41 to i64
  %43 = and i64 %42, 1
  %.not38 = icmp eq i64 %43, 0
  br i1 %.not38, label %44, label %lean_inc.exit21

44:                                               ; preds = %lean_alloc_closure.exit
  %.val.i30 = load i32, ptr %41, align 4, !tbaa !4
  %45 = icmp sgt i32 %.val.i30, 0
  br i1 %45, label %46, label %48, !prof !11

46:                                               ; preds = %44
  %47 = add nuw i32 %.val.i30, 1
  store i32 %47, ptr %41, align 4, !tbaa !4
  br label %lean_inc.exit21

48:                                               ; preds = %44
  %.not.i31 = icmp eq i32 %.val.i30, 0
  br i1 %.not.i31, label %lean_inc.exit21, label %49

49:                                               ; preds = %48
  tail call void @lean_inc_ref_cold(ptr noundef nonnull %41) #7
  br label %lean_inc.exit21

lean_inc.exit21:                                  ; preds = %49, %48, %46, %lean_alloc_closure.exit
  %50 = tail call ptr @lean_apply_2(ptr noundef %41, ptr noundef nonnull inttoptr (i64 1 to ptr), ptr noundef nonnull %31) #7
  %51 = getelementptr inbounds nuw i8, ptr %1, i64 16
  %52 = load ptr, ptr %51, align 8, !tbaa !9
  %53 = ptrtoint ptr %52 to i64
  %54 = and i64 %53, 1
  %.not39 = icmp eq i64 %54, 0
  br i1 %.not39, label %55, label %lean_inc.exit

55:                                               ; preds = %lean_inc.exit21
  %.val.i33 = load i32, ptr %52, align 4, !tbaa !4
  %56 = icmp sgt i32 %.val.i33, 0
  br i1 %56, label %57, label %59, !prof !11

57:                                               ; preds = %55
  %58 = add nuw i32 %.val.i33, 1
  store i32 %58, ptr %52, align 4, !tbaa !4
  br label %lean_inc.exit

59:                                               ; preds = %55
  %.not.i34 = icmp eq i32 %.val.i33, 0
  br i1 %.not.i34, label %lean_inc.exit, label %60

60:                                               ; preds = %59
  tail call void @lean_inc_ref_cold(ptr noundef nonnull %52) #7
  br label %lean_inc.exit

lean_inc.exit:                                    ; preds = %60, %59, %57, %lean_inc.exit21
  br i1 %.not37, label %61, label %lean_dec.exit

61:                                               ; preds = %lean_inc.exit
  %62 = load i32, ptr %1, align 4, !tbaa !4
  %63 = icmp sgt i32 %62, 1
  br i1 %63, label %64, label %66, !prof !11

64:                                               ; preds = %61
  %65 = add nsw i32 %62, -1
  store i32 %65, ptr %1, align 4, !tbaa !4
  br label %lean_dec.exit

66:                                               ; preds = %61
  %.not.i24 = icmp eq i32 %62, 0
  br i1 %.not.i24, label %lean_dec.exit, label %67

67:                                               ; preds = %66
  tail call void @lean_dec_ref_cold(ptr noundef nonnull %1) #7
  br label %lean_dec.exit

lean_dec.exit:                                    ; preds = %67, %66, %64, %lean_inc.exit
  %68 = tail call ptr @lean_apply_1(ptr noundef %52, ptr noundef nonnull inttoptr (i64 1 to ptr)) #7
  %69 = tail call ptr @lean_apply_4(ptr noundef %5, ptr noundef nonnull inttoptr (i64 1 to ptr), ptr noundef nonnull inttoptr (i64 1 to ptr), ptr noundef %50, ptr noundef %68) #7
  ret ptr %69
}